target datalayout = "e-m:e-p270:32:32-p271:32:32-p272:64:64-i64:64-i128:128-f80:128-n8:16:32:64-S128"
target triple = "x86_64-pc-linux-gnu"

%struct._packet_info = type { ptr, ptr, i32, i32, %struct.nstime_t, %struct.nstime_t, %struct.nstime_t, i8, ptr, ptr, ptr, ptr, %struct._address, %struct._address, %struct._address, %struct._address, %struct._address, %struct._address, i32, ptr, i8, [3 x i8], %struct.anon, i32, i32, i32, i32, ptr, i8, ptr, ptr, i16, i16, i32, i32, i16, i32, i32, ptr, ptr, ptr, i8, i8, i16, i16, i16, i32, i16, i16, ptr, ptr, ptr, ptr, ptr, i32, i32 }
%struct.nstime_t = type { i64, i32 }
%struct._address = type { i32, i32, ptr, ptr }
%struct.anon = type { i8, [3 x i8] }
%struct._asn1_ctx_t = type { i32, i32, i8, ptr, ptr, ptr, ptr, ptr, %struct.anon.0, %struct.anon.3, %struct.anon.4, ptr }
%struct.anon.0 = type { i32, i8, i8, i8, ptr, ptr, i32, i32, ptr, ptr, ptr, %union.anon }
%union.anon = type { %struct.anon.1 }
%struct.anon.1 = type { ptr }
%struct.anon.3 = type { ptr, ptr, ptr }
%struct.anon.4 = type { i32, i8, ptr, i32, i32, ptr, ptr, ptr, %union.anon.5 }
%union.anon.5 = type { %struct.anon.6 }
%struct.anon.6 = type { ptr }

@hf_nbap_NBAP_PDU_PDU = internal global i32 0, align 4
@ett_nbap = internal global i32 0, align 4
@ett_nbap_NBAP_PDU = internal global i32 0, align 4
@.str.6640 = private unnamed_addr constant [5 x i8] c"NBAP\00", align 1
@proto_nbap = internal global i32 0, align 4

; Function Attrs: null_pointer_is_valid sspstrong uwtable
define internal i32 @dissect_nbap_NBAP_PDU(ptr noundef %0, i32 noundef %1, ptr noundef %2, ptr noundef %3, i32 noundef %4) #0 {
  %6 = alloca ptr, align 8
  %7 = alloca i32, align 4
  %8 = alloca ptr, align 8
  %9 = alloca ptr, align 8
  %10 = alloca i32, align 4
  store ptr %0, ptr %6, align 8
  store i32 %1, ptr %7, align 4
  store ptr %2, ptr %8, align 8
  store ptr %3, ptr %9, align 8
  store i32 %4, ptr %10, align 4
  %11 = load ptr, ptr %6, align 8
  %12 = load i32, ptr %7, align 4
  %13 = load ptr, ptr %8, align 8
  %14 = load ptr, ptr %9, align 8
  %15 = load i32, ptr %10, align 4
  %16 = load i32, ptr @ett_nbap_NBAP_PDU, align 4
  %17 = call i32 @dissect_per_choice(ptr noundef %11, i32 noundef %12, ptr noundef %13, ptr noundef %14, i32 noundef %15, i32 noundef %16, ptr noundef @NBAP_PDU_choice, ptr noundef null)
  store i32 %17, ptr %7, align 4
  %18 = load i32, ptr %7, align 4
  ret i32 %18
}

; Function Attrs: null_pointer_is_valid sspstrong uwtable
define internal i32 @dissect_NBAP_PDU_PDU(ptr noundef %0, ptr noundef %1, ptr noundef %2, ptr noundef %3) #0 {
  %5 = alloca ptr, align 8
  %6 = alloca ptr, align 8
  %7 = alloca ptr, align 8
  %8 = alloca ptr, align 8
  %9 = alloca i32, align 4
  %10 = alloca %struct._asn1_ctx_t, align 8
  store ptr %0, ptr %5, align 8
  store ptr %1, ptr %6, align 8
  store ptr %2, ptr %7, align 8
  store ptr %3, ptr %8, align 8
  call void @llvm.lifetime.start.p0(i64 4, ptr %9) #13
  store i32 0, ptr %9, align 4
  call void @llvm.lifetime.start.p0(i64 208, ptr %10) #13
  %11 = load ptr, ptr %6, align 8
  call void @asn1_ctx_init(ptr noundef %10, i32 noundef 1, i1 noundef zeroext true, ptr noundef %11)
  %12 = load ptr, ptr %5, align 8
  %13 = load i32, ptr %9, align 4
  %14 = load ptr, ptr %7, align 8
  %15 = load i32, ptr @hf_nbap_NBAP_PDU_PDU, align 4
  %16 = call i32 @dissect_nbap_NBAP_PDU(ptr noundef %12, i32 noundef %13, ptr noundef %10, ptr noundef %14, i32 noundef %15)
  store i32 %16, ptr %9, align 4
  %17 = load i32, ptr %9, align 4
  %18 = add i32 %17, 7
  store i32 %18, ptr %9, align 4
  %19 = load i32, ptr %9, align 4
  %20 = ashr i32 %19, 3
  store i32 %20, ptr %9, align 4
  %21 = load i32, ptr %9, align 4
  call void @llvm.lifetime.end.p0(i64 208, ptr %10) #13
  call void @llvm.lifetime.end.p0(i64 4, ptr %9) #13
  ret i32 %21
}

; Function Attrs: null_pointer_is_valid sspstrong uwtable
define internal void @nbap_reset_private_data(ptr noundef %0) #0 {
  %2 = alloca ptr, align 8
  store ptr %0, ptr %2, align 8
  %3 = load ptr, ptr %2, align 8
  %4 = getelementptr inbounds nuw %struct._packet_info, ptr %3, i32 0, i32 51
  %5 = load ptr, ptr %4, align 8
  %6 = load ptr, ptr %2, align 8
  %7 = load i32, ptr @proto_nbap, align 4
  call void @p_remove_proto_data(ptr noundef %5, ptr noundef %6, i32 noundef %7, i32 noundef 0)
  ret void
}

; Function Attrs: null_pointer_is_valid sspstrong uwtable
define internal i32 @dissect_nbap(ptr noundef %0, ptr noundef %1, ptr noundef %2, ptr noundef %3) #0 {
  %5 = alloca ptr, align 8
  %6 = alloca ptr, align 8
  %7 = alloca ptr, align 8
  %8 = alloca ptr, align 8
  %9 = alloca ptr, align 8
  %10 = alloca ptr, align 8
  store ptr %0, ptr %5, align 8
  store ptr %1, ptr %6, align 8
  store ptr %2, ptr %7, align 8
  store ptr %3, ptr %8, align 8
  call void @llvm.lifetime.start.p0(i64 8, ptr %9) #13
  store ptr null, ptr %9, align 8
  call void @llvm.lifetime.start.p0(i64 8, ptr %10) #13
  store ptr null, ptr %10, align 8
  %11 = load ptr, ptr %6, align 8
  %12 = getelementptr inbounds nuw %struct._packet_info, ptr %11, i32 0, i32 1
  %13 = load ptr, ptr %12, align 8
  call void @col_set_str(ptr noundef %13, i32 noundef 35, ptr noundef @.str.6640)
  %14 = load ptr, ptr %7, align 8
  %15 = load i32, ptr @proto_nbap, align 4
  %16 = load ptr, ptr %5, align 8
  %17 = call ptr @proto_tree_add_item(ptr noundef %14, i32 noundef %15, ptr noundef %16, i32 noundef 0, i32 noundef -1, i32 noundef 0)
  store ptr %17, ptr %9, align 8
  %18 = load ptr, ptr %9, align 8
  %19 = load i32, ptr @ett_nbap, align 4
  %20 = call ptr @proto_item_add_subtree(ptr noundef %18, i32 noundef %19)
  store ptr %20, ptr %10, align 8
  %21 = load ptr, ptr %6, align 8
  call void @nbap_reset_private_data(ptr noundef %21)
  %22 = load ptr, ptr %5, align 8
  %23 = load ptr, ptr %6, align 8
  %24 = load ptr, ptr %10, align 8
  %25 = load ptr, ptr %8, align 8
  %26 = call i32 @dissect_NBAP_PDU_PDU(ptr noundef %22, ptr noundef %23, ptr noundef %24, ptr noundef %25)
  call void @llvm.lifetime.end.p0(i64 8, ptr %10) #13
  call void @llvm.lifetime.end.p0(i64 8, ptr %9) #13
  ret i32 %26
}